; Function Attrs: mustprogress nofree norecurse nosync nounwind ssp willreturn memory(argmem: readwrite) uwtable
define internal void @_ZN6open3d4core6kernelL26CPULogicalAndElementKernelIssEEvPKvS4_Pv(ptr noundef readonly captures(none) %0, ptr noundef readonly captures(none) %1, ptr noundef writeonly captures(none) initializes((0, 2)) %2) #15 {
  %4 = load i16, ptr %0, align 2, !tbaa !772
  %.not = icmp eq i16 %4, 0
  br i1 %.not, label %9, label %5

5:                                                ; preds = %3
  %6 = load i16, ptr %1, align 2, !tbaa !772
  %7 = icmp ne i16 %6, 0
  %8 = zext i1 %7 to i16
  br label %9

9:                                                ; preds = %5, %3
  %10 = phi i16 [ 0, %3 ], [ %8, %5 ]
  store i16 %10, ptr %2, align 2, !tbaa !772
  ret void
}